

Microchip MPLAB XC8 Assembler V2.45 build 20230818022343 
                                                                                               Fri Apr 05 08:02:33 2024

Microchip MPLAB XC8 C Compiler v2.45 (Free license) build 20230818022343 Og1 
     1                           	processor	18F4580
     2                           	fnconf	rparam,??,?,0
     3                           	pagewidth 120
     4                           	opt	flic
     5                           	psect	idataCOMRAM,global,class=CODE,delta=1,noexec
     6                           	psect	cinit,global,reloc=2,class=CODE,delta=1
     7                           	psect	bssCOMRAM,global,class=COMRAM,space=1,delta=1,lowdata,noexec
     8                           	psect	dataCOMRAM,global,class=COMRAM,space=1,delta=1,lowdata,noexec
     9                           	psect	cstackCOMRAM,global,class=COMRAM,space=1,delta=1,lowdata,noexec
    10                           	psect	text0,global,reloc=2,class=CODE,delta=1
    11                           	psect	text1,global,reloc=2,class=CODE,delta=1
    12                           	psect	text2,global,reloc=2,class=CODE,delta=1
    13                           	psect	text3,global,reloc=2,class=CODE,delta=1
    14                           	psect	text4,global,reloc=2,class=CODE,delta=1
    15                           	psect	intcode,global,reloc=2,class=CODE,delta=1
    16                           	psect	intcode_body,global,reloc=2,class=CODE,delta=1
    17                           	psect	smallconst,global,reloc=2,class=SMALLCONST,delta=1,noexec
    18                           	psect	intsave_regs,global,class=BIGRAM,space=1,delta=1,noexec
    19                           	psect	rparam,global,class=COMRAM,space=1,delta=1,noexec
    20                           	psect	temp,global,ovrld,common,class=COMRAM,space=1,delta=1
    21                           	psect	idloc,global,abs,ovrld,class=IDLOC,space=5,delta=1,noexec
    22                           	psect	config,global,abs,ovrld,class=CONFIG,space=4,delta=1,noexec
    23   000000                     
    24                           ; Version 2.20
    25                           ; Generated 12/02/2020 GMT
    26                           ; 
    27                           ; Copyright © 2020, Microchip Technology Inc. and its subsidiaries ("Microchip")
    28                           ; All rights reserved.
    29                           ; 
    30                           ; This software is developed by Microchip Technology Inc. and its subsidiaries ("Microch
      +                          ip").
    31                           ; 
    32                           ; Redistribution and use in source and binary forms, with or without modification, are
    33                           ; permitted provided that the following conditions are met:
    34                           ; 
    35                           ;     1. Redistributions of source code must retain the above copyright notice, this lis
      +                          t of
    36                           ;        conditions and the following disclaimer.
    37                           ; 
    38                           ;     2. Redistributions in binary form must reproduce the above copyright notice, this 
      +                          list
    39                           ;        of conditions and the following disclaimer in the documentation and/or other
    40                           ;        materials provided with the distribution.
    41                           ; 
    42                           ;     3. Microchip's name may not be used to endorse or promote products derived from th
      +                          is
    43                           ;        software without specific prior written permission.
    44                           ; 
    45                           ; THIS SOFTWARE IS PROVIDED BY MICROCHIP "AS IS" AND ANY EXPRESS OR IMPLIED WARRANTIES,
    46                           ; INCLUDING, BUT NOT LIMITED TO, THE IMPLIED WARRANTIES OF MERCHANTABILITY AND FITNESS F
      +                          OR
    47                           ; PURPOSE ARE DISCLAIMED.  IN NO EVENT SHALL MICROCHIP BE LIABLE FOR ANY DIRECT, INDIREC
      +                          T,
    48                           ; INCIDENTAL, SPECIAL, EXEMPLARY, OR CONSEQUENTIAL DAMAGES (INCLUDING BUT NOT LIMITED TO
    49                           ; PROCUREMENT OF SUBSTITUTE GOODS OR SERVICES; LOSS OF USE, DATA OR PROFITS; OR BUSINESS
    50                           ; INTERRUPTION) HOWSOEVER CAUSED AND ON ANY THEORY OF LIABILITY, WHETHER IN CONTRACT, ST
      +                          RICT
    51                           ; LIABILITY, OR TORT (INCLUDING NEGLIGENCE OR OTHERWISE) ARISING IN ANY WAY OUT OF THE U
      +                          SE OF
    52                           ; THIS SOFTWARE, EVEN IF ADVISED OF THE POSSIBILITY OF SUCH DAMAGE.
    53                           ; 
    54                           ; 
    55                           ; Code-generator required, PIC18F4580 Definitions
    56                           ; 
    57                           ; SFR Addresses
    58   000000                     
    59                           	psect	idataCOMRAM
    60   0007B6                     __pidataCOMRAM:
    61                           	callstack 0
    62                           
    63                           ;initializer for read_digital_keypad@once
    64   0007B6  01                 	db	1
    65   000000                     _PSA	set	32427
    66   000000                     _T0CS	set	32429
    67   000000                     _T08BIT	set	32430
    68   000000                     _TMR0IF	set	32658
    69   000000                     _TMR0IE	set	32661
    70   000000                     _PEIE	set	32662
    71   000000                     _RB0	set	31752
    72   000000                     _PORTB	set	3969
    73   000000                     _TRISB	set	3987
    74   000000                     _TMR0	set	4054
    75   000000                     _TRISC	set	3988
    76   000000                     _TMR0ON	set	32431
    77   000000                     _GIE	set	32663
    78   000000                     _PORTC	set	3970
    79                           
    80                           ; #config settings
    81                           
    82                           	psect	cinit
    83   00075E                     __pcinit:
    84                           	callstack 0
    85   00075E                     start_initialization:
    86                           	callstack 0
    87   00075E                     __initialization:
    88                           	callstack 0
    89                           
    90                           ; Initialize objects allocated to COMRAM (1 bytes)
    91                           ; load TBLPTR registers with __pidataCOMRAM
    92   00075E  0EB6               	movlw	low __pidataCOMRAM
    93   000760  6EF6               	movwf	tblptrl,c
    94   000762  0E07               	movlw	high __pidataCOMRAM
    95   000764  6EF7               	movwf	tblptrh,c
    96   000766  0E00               	movlw	low (__pidataCOMRAM shr (0+16))
    97   000768  6EF8               	movwf	tblptru,c
    98   00076A  0009               	tblrd		*+	;fetch initializer
    99   00076C  CFF5 F00F          	movff	tablat,__pdataCOMRAM
   100                           
   101                           ; Clear objects allocated to COMRAM (4 bytes)
   102   000770  6A0E               	clrf	(__pbssCOMRAM+3)& (0+255),c
   103   000772  6A0D               	clrf	(__pbssCOMRAM+2)& (0+255),c
   104   000774  6A0C               	clrf	(__pbssCOMRAM+1)& (0+255),c
   105   000776  6A0B               	clrf	__pbssCOMRAM& (0+255),c
   106   000778                     end_of_initialization:
   107                           	callstack 0
   108   000778                     __end_of__initialization:
   109                           	callstack 0
   110   000778  9010               	bcf	int$flags,0,c	;clear compiler interrupt flag (level 1)
   111   00077A  9210               	bcf	int$flags,1,c	;clear compiler interrupt flag (level 2)
   112   00077C  0100               	movlb	0
   113   00077E  EF01  F003         	goto	_main	;jump to C main() function
   114                           
   115                           	psect	bssCOMRAM
   116   00000B                     __pbssCOMRAM:
   117                           	callstack 0
   118   00000B                     isr@count:
   119                           	callstack 0
   120   00000B                     	ds	2
   121   00000D                     _delay:
   122                           	callstack 0
   123   00000D                     	ds	2
   124                           
   125                           	psect	dataCOMRAM
   126   00000F                     __pdataCOMRAM:
   127                           	callstack 0
   128   00000F                     read_digital_keypad@once:
   129                           	callstack 0
   130   00000F                     	ds	1
   131                           
   132                           	psect	cstackCOMRAM
   133   000001                     __pcstackCOMRAM:
   134                           	callstack 0
   135   000001                     read_digital_keypad@mode:
   136                           	callstack 0
   137                           
   138                           ; 1 bytes @ 0x0
   139   000001                     	ds	1
   140   000002                     ??_main:
   141                           
   142                           ; 1 bytes @ 0x1
   143   000002                     	ds	2
   144   000004                     main@period:
   145                           	callstack 0
   146                           
   147                           ; 2 bytes @ 0x3
   148   000004                     	ds	2
   149   000006                     main@duty_cycle:
   150                           	callstack 0
   151                           
   152                           ; 2 bytes @ 0x5
   153   000006                     	ds	2
   154   000008                     main@key:
   155                           	callstack 0
   156                           
   157                           ; 1 bytes @ 0x7
   158   000008                     	ds	1
   159   000009                     main@program_cycle:
   160                           	callstack 0
   161                           
   162                           ; 2 bytes @ 0x8
   163   000009                     	ds	2
   164                           
   165 ;;
   166 ;;Main: autosize = 0, tempsize = 2, incstack = 0, save=0
   167 ;;
   168 ;; *************** function _main *****************
   169 ;; Defined at:
   170 ;;		line 18 in file "main.c"
   171 ;; Parameters:    Size  Location     Type
   172 ;;		None
   173 ;; Auto vars:     Size  Location     Type
   174 ;;  program_cycl    2    8[COMRAM] unsigned int 
   175 ;;  duty_cycle      2    5[COMRAM] unsigned int 
   176 ;;  period          2    3[COMRAM] unsigned int 
   177 ;;  key             1    7[COMRAM] unsigned char 
   178 ;; Return value:  Size  Location     Type
   179 ;;                  1    wreg      void 
   180 ;; Registers used:
   181 ;;		wreg, status,2, status,0, cstack
   182 ;; Tracked objects:
   183 ;;		On entry : 0/0
   184 ;;		On exit  : 0/0
   185 ;;		Unchanged: 0/0
   186 ;; Data sizes:     COMRAM   BANK0   BANK1   BANK2   BANK3   BANK4   BANK5
   187 ;;      Params:         0       0       0       0       0       0       0
   188 ;;      Locals:         7       0       0       0       0       0       0
   189 ;;      Temps:          2       0       0       0       0       0       0
   190 ;;      Totals:         9       0       0       0       0       0       0
   191 ;;Total ram usage:        9 bytes
   192 ;; Hardware stack levels required when called: 3
   193 ;; This function calls:
   194 ;;		_init_config
   195 ;;		_read_digital_keypad
   196 ;; This function is called by:
   197 ;;		Startup code after reset
   198 ;; This function uses a non-reentrant model
   199 ;;
   200                           
   201                           	psect	text0
   202   000602                     __ptext0:
   203                           	callstack 0
   204   000602                     _main:
   205                           	callstack 28
   206   000602                     
   207                           ;main.c: 19:     init_config();
   208   000602  ECCE  F003         	call	_init_config	;wreg free
   209   000606                     
   210                           ;main.c: 20:     unsigned char key;;main.c: 21:     unsigned int period = 100, program_c
      +                          ycle = 0, duty_cycle = 10;
   211   000606  0E00               	movlw	0
   212   000608  6E05               	movwf	(main@period+1)^0,c
   213   00060A  0E64               	movlw	100
   214   00060C  6E04               	movwf	main@period^0,c
   215   00060E  0E00               	movlw	0
   216   000610  6E0A               	movwf	(main@program_cycle+1)^0,c
   217   000612  0E00               	movlw	0
   218   000614  6E09               	movwf	main@program_cycle^0,c
   219   000616                     l811:
   220   000616  0E00               	movlw	0
   221   000618  6E07               	movwf	(main@duty_cycle+1)^0,c
   222   00061A  0E0A               	movlw	10
   223   00061C  6E06               	movwf	main@duty_cycle^0,c
   224   00061E                     l813:
   225                           
   226                           ;main.c: 23:         key = read_digital_keypad(1);
   227   00061E  0E01               	movlw	1
   228   000620  EC59  F003         	call	_read_digital_keypad
   229   000624  6E08               	movwf	main@key^0,c
   230   000626                     
   231                           ;main.c: 25:         {;main.c: 26:             if (duty_cycle >= program_cycle)
   232   000626  5009               	movf	main@program_cycle^0,w,c
   233   000628  5C06               	subwf	main@duty_cycle^0,w,c
   234   00062A  500A               	movf	(main@program_cycle+1)^0,w,c
   235   00062C  5807               	subwfb	(main@duty_cycle+1)^0,w,c
   236   00062E  A0D8               	btfss	status,0,c
   237   000630  EF1C  F003         	goto	u51
   238   000634  EF1E  F003         	goto	u50
   239   000638                     u51:
   240   000638  EF21  F003         	goto	l23
   241   00063C                     u50:
   242   00063C                     
   243                           ;main.c: 27:             {;main.c: 28:                 RB0 = 1;
   244   00063C  8081               	bsf	3969,0,c	;volatile
   245                           
   246                           ;main.c: 29:             }
   247   00063E  EF22  F003         	goto	l819
   248   000642                     l23:
   249                           
   250                           ;main.c: 31:                 RB0 = 0;
   251   000642  9081               	bcf	3969,0,c	;volatile
   252   000644                     l819:
   253                           
   254                           ;main.c: 32:             if (program_cycle++ == period)
   255   000644  4A09               	infsnz	main@program_cycle^0,f,c
   256   000646  2A0A               	incf	(main@program_cycle+1)^0,f,c
   257   000648  0E01               	movlw	1
   258   00064A  2404               	addwf	main@period^0,w,c
   259   00064C  6E02               	movwf	??_main^0,c
   260   00064E  0E00               	movlw	0
   261   000650  2005               	addwfc	(main@period+1)^0,w,c
   262   000652  6E03               	movwf	(??_main+1)^0,c
   263   000654  5009               	movf	main@program_cycle^0,w,c
   264   000656  1802               	xorwf	??_main^0,w,c
   265   000658  E107               	bnz	u61
   266   00065A  500A               	movf	(main@program_cycle+1)^0,w,c
   267   00065C  1803               	xorwf	(??_main+1)^0,w,c
   268   00065E  A4D8               	btfss	status,2,c
   269   000660  EF34  F003         	goto	u61
   270   000664  EF36  F003         	goto	u60
   271   000668                     u61:
   272   000668  EF3A  F003         	goto	l823
   273   00066C                     u60:
   274   00066C                     
   275                           ;main.c: 33:             {;main.c: 34:                 program_cycle = 0;
   276   00066C  0E00               	movlw	0
   277   00066E  6E0A               	movwf	(main@program_cycle+1)^0,c
   278   000670  0E00               	movlw	0
   279   000672  6E09               	movwf	main@program_cycle^0,c
   280   000674                     l823:
   281                           
   282                           ;main.c: 36:         };main.c: 37:          if (key == 0X0E)
   283   000674  0E0E               	movlw	14
   284   000676  1808               	xorwf	main@key^0,w,c
   285   000678  A4D8               	btfss	status,2,c
   286   00067A  EF41  F003         	goto	u71
   287   00067E  EF43  F003         	goto	u70
   288   000682                     u71:
   289   000682  EF4B  F003         	goto	l827
   290   000686                     u70:
   291   000686                     
   292                           ;main.c: 38:         {;main.c: 39:             duty_cycle = 100;
   293   000686  0E00               	movlw	0
   294   000688  6E07               	movwf	(main@duty_cycle+1)^0,c
   295   00068A  0E64               	movlw	100
   296   00068C  6E06               	movwf	main@duty_cycle^0,c
   297                           
   298                           ;main.c: 40:             delay = 0;
   299   00068E  0E00               	movlw	0
   300   000690  6E0E               	movwf	(_delay+1)^0,c
   301   000692  0E00               	movlw	0
   302   000694  6E0D               	movwf	_delay^0,c
   303   000696                     l827:
   304                           
   305                           ;main.c: 52:          if (delay == 4)
   306   000696  0E04               	movlw	4
   307   000698  180D               	xorwf	_delay^0,w,c
   308   00069A  100E               	iorwf	(_delay+1)^0,w,c
   309   00069C  A4D8               	btfss	status,2,c
   310   00069E  EF53  F003         	goto	u81
   311   0006A2  EF55  F003         	goto	u80
   312   0006A6                     u81:
   313   0006A6  EF0F  F003         	goto	l813
   314   0006AA                     u80:
   315   0006AA  EF0B  F003         	goto	l811
   316   0006AE  EF07  F000         	goto	start
   317   0006B2                     __end_of_main:
   318                           	callstack 0
   319                           
   320 ;; *************** function _read_digital_keypad *****************
   321 ;; Defined at:
   322 ;;		line 14 in file "dksp.c"
   323 ;; Parameters:    Size  Location     Type
   324 ;;  mode            1    wreg     unsigned char 
   325 ;; Auto vars:     Size  Location     Type
   326 ;;  mode            1    0[COMRAM] unsigned char 
   327 ;; Return value:  Size  Location     Type
   328 ;;                  1    wreg      unsigned char 
   329 ;; Registers used:
   330 ;;		wreg, status,2, status,0
   331 ;; Tracked objects:
   332 ;;		On entry : 0/0
   333 ;;		On exit  : 0/0
   334 ;;		Unchanged: 0/0
   335 ;; Data sizes:     COMRAM   BANK0   BANK1   BANK2   BANK3   BANK4   BANK5
   336 ;;      Params:         0       0       0       0       0       0       0
   337 ;;      Locals:         1       0       0       0       0       0       0
   338 ;;      Temps:          0       0       0       0       0       0       0
   339 ;;      Totals:         1       0       0       0       0       0       0
   340 ;;Total ram usage:        1 bytes
   341 ;; Hardware stack levels used: 1
   342 ;; Hardware stack levels required when called: 1
   343 ;; This function calls:
   344 ;;		Nothing
   345 ;; This function is called by:
   346 ;;		_main
   347 ;; This function uses a non-reentrant model
   348 ;;
   349                           
   350                           	psect	text1
   351   0006B2                     __ptext1:
   352                           	callstack 0
   353   0006B2                     _read_digital_keypad:
   354                           	callstack 29
   355                           
   356                           ;incstack = 0
   357                           ;read_digital_keypad@mode stored from wreg
   358   0006B2  6E01               	movwf	read_digital_keypad@mode^0,c
   359   0006B4                     
   360                           ;dksp.c: 14: unsigned char read_digital_keypad(unsigned char mode);dksp.c: 15: {;dksp.c:
      +                           16:     static unsigned char once = 1;;dksp.c: 18:     if (mode == 0)
   361   0006B4  5001               	movf	read_digital_keypad@mode^0,w,c
   362   0006B6  A4D8               	btfss	status,2,c
   363   0006B8  EF60  F003         	goto	u11
   364   0006BC  EF62  F003         	goto	u10
   365   0006C0                     u11:
   366   0006C0  EF66  F003         	goto	l785
   367   0006C4                     u10:
   368   0006C4                     l779:
   369                           
   370                           ;dksp.c: 19:     {;dksp.c: 20:         return PORTC & 0x0F;
   371   0006C4  5082               	movf	130,w,c	;volatile
   372   0006C6  0B0F               	andlw	15
   373   0006C8  EF89  F003         	goto	l45
   374   0006CC                     l785:
   375                           
   376                           ;dksp.c: 23:     {;dksp.c: 24:         if (((PORTC & 0x0F) != 0X0F) && once)
   377   0006CC  5082               	movf	130,w,c	;volatile
   378   0006CE  0B0F               	andlw	15
   379   0006D0  0A0F               	xorlw	15
   380   0006D2  B4D8               	btfsc	status,2,c
   381   0006D4  EF6E  F003         	goto	u21
   382   0006D8  EF70  F003         	goto	u20
   383   0006DC                     u21:
   384   0006DC  EF7C  F003         	goto	l797
   385   0006E0                     u20:
   386   0006E0  500F               	movf	read_digital_keypad@once^0,w,c
   387   0006E2  B4D8               	btfsc	status,2,c
   388   0006E4  EF76  F003         	goto	u31
   389   0006E8  EF78  F003         	goto	u30
   390   0006EC                     u31:
   391   0006EC  EF7C  F003         	goto	l797
   392   0006F0                     u30:
   393   0006F0                     
   394                           ;dksp.c: 25:         {;dksp.c: 26:             once = 0;
   395   0006F0  0E00               	movlw	0
   396   0006F2  6E0F               	movwf	read_digital_keypad@once^0,c
   397   0006F4  EF62  F003         	goto	l779
   398   0006F8                     l797:
   399   0006F8  5082               	movf	130,w,c	;volatile
   400   0006FA  0B0F               	andlw	15
   401   0006FC  0A0F               	xorlw	15
   402   0006FE  A4D8               	btfss	status,2,c
   403   000700  EF84  F003         	goto	u41
   404   000704  EF86  F003         	goto	u40
   405   000708                     u41:
   406   000708  EF88  F003         	goto	l801
   407   00070C                     u40:
   408   00070C                     
   409                           ;dksp.c: 31:         {;dksp.c: 32:             once = 1;
   410   00070C  0E01               	movlw	1
   411   00070E  6E0F               	movwf	read_digital_keypad@once^0,c
   412   000710                     l801:
   413                           
   414                           ;dksp.c: 36:     return 0X0F;
   415   000710  0E0F               	movlw	15
   416   000712                     l45:
   417   000712  0012               	return		;funcret
   418   000714                     __end_of_read_digital_keypad:
   419                           	callstack 0
   420                           
   421 ;; *************** function _init_config *****************
   422 ;; Defined at:
   423 ;;		line 9 in file "main.c"
   424 ;; Parameters:    Size  Location     Type
   425 ;;		None
   426 ;; Auto vars:     Size  Location     Type
   427 ;;		None
   428 ;; Return value:  Size  Location     Type
   429 ;;                  1    wreg      void 
   430 ;; Registers used:
   431 ;;		wreg, status,2, status,0, cstack
   432 ;; Tracked objects:
   433 ;;		On entry : 0/0
   434 ;;		On exit  : 0/0
   435 ;;		Unchanged: 0/0
   436 ;; Data sizes:     COMRAM   BANK0   BANK1   BANK2   BANK3   BANK4   BANK5
   437 ;;      Params:         0       0       0       0       0       0       0
   438 ;;      Locals:         0       0       0       0       0       0       0
   439 ;;      Temps:          0       0       0       0       0       0       0
   440 ;;      Totals:         0       0       0       0       0       0       0
   441 ;;Total ram usage:        0 bytes
   442 ;; Hardware stack levels used: 1
   443 ;; Hardware stack levels required when called: 2
   444 ;; This function calls:
   445 ;;		_init_config_digital_keypad
   446 ;;		_init_timer0
   447 ;; This function is called by:
   448 ;;		_main
   449 ;; This function uses a non-reentrant model
   450 ;;
   451                           
   452                           	psect	text2
   453   00079C                     __ptext2:
   454                           	callstack 0
   455   00079C                     _init_config:
   456                           	callstack 28
   457   00079C                     
   458                           ;main.c: 10:     TRISB = 0X00;
   459   00079C  0E00               	movlw	0
   460   00079E  6E93               	movwf	147,c	;volatile
   461                           
   462                           ;main.c: 11:     PORTB = 0X00;
   463   0007A0  0E00               	movlw	0
   464   0007A2  6E81               	movwf	129,c	;volatile
   465   0007A4                     
   466                           ;main.c: 12:     init_timer0();
   467   0007A4  ECC1  F003         	call	_init_timer0	;wreg free
   468   0007A8                     
   469                           ;main.c: 13:     init_config_digital_keypad();
   470   0007A8  ECD7  F003         	call	_init_config_digital_keypad	;wreg free
   471   0007AC  0012               	return		;funcret
   472   0007AE                     __end_of_init_config:
   473                           	callstack 0
   474                           
   475 ;; *************** function _init_timer0 *****************
   476 ;; Defined at:
   477 ;;		line 10 in file "isr.c"
   478 ;; Parameters:    Size  Location     Type
   479 ;;		None
   480 ;; Auto vars:     Size  Location     Type
   481 ;;		None
   482 ;; Return value:  Size  Location     Type
   483 ;;                  1    wreg      void 
   484 ;; Registers used:
   485 ;;		wreg, status,2
   486 ;; Tracked objects:
   487 ;;		On entry : 0/0
   488 ;;		On exit  : 0/0
   489 ;;		Unchanged: 0/0
   490 ;; Data sizes:     COMRAM   BANK0   BANK1   BANK2   BANK3   BANK4   BANK5
   491 ;;      Params:         0       0       0       0       0       0       0
   492 ;;      Locals:         0       0       0       0       0       0       0
   493 ;;      Temps:          0       0       0       0       0       0       0
   494 ;;      Totals:         0       0       0       0       0       0       0
   495 ;;Total ram usage:        0 bytes
   496 ;; Hardware stack levels used: 1
   497 ;; Hardware stack levels required when called: 1
   498 ;; This function calls:
   499 ;;		Nothing
   500 ;; This function is called by:
   501 ;;		_init_config
   502 ;; This function uses a non-reentrant model
   503 ;;
   504                           
   505                           	psect	text3
   506   000782                     __ptext3:
   507                           	callstack 0
   508   000782                     _init_timer0:
   509                           	callstack 28
   510   000782                     
   511                           ;isr.c: 13:     GIE = 1;
   512   000782  8EF2               	bsf	4082,7,c	;volatile
   513                           
   514                           ;isr.c: 14:     PEIE = 1;
   515   000784  8CF2               	bsf	4082,6,c	;volatile
   516                           
   517                           ;isr.c: 16:     TMR0IE = 1;
   518   000786  8AF2               	bsf	4082,5,c	;volatile
   519                           
   520                           ;isr.c: 17:     TMR0IF = 0;
   521   000788  94F2               	bcf	4082,2,c	;volatile
   522   00078A                     
   523                           ;isr.c: 18:     TMR0 = 6;
   524   00078A  0E00               	movlw	0
   525   00078C  6ED7               	movwf	215,c	;volatile
   526   00078E  0E06               	movlw	6
   527   000790  6ED6               	movwf	214,c	;volatile
   528   000792                     
   529                           ;isr.c: 19:     TMR0ON = 1;
   530   000792  8ED5               	bsf	4053,7,c	;volatile
   531   000794                     
   532                           ;isr.c: 20:     T08BIT = 1;
   533   000794  8CD5               	bsf	4053,6,c	;volatile
   534   000796                     
   535                           ;isr.c: 21:     T0CS = 0;
   536   000796  9AD5               	bcf	4053,5,c	;volatile
   537   000798                     
   538                           ;isr.c: 22:     PSA = 1;
   539   000798  86D5               	bsf	4053,3,c	;volatile
   540   00079A  0012               	return		;funcret
   541   00079C                     __end_of_init_timer0:
   542                           	callstack 0
   543                           
   544 ;; *************** function _init_config_digital_keypad *****************
   545 ;; Defined at:
   546 ;;		line 9 in file "dksp.c"
   547 ;; Parameters:    Size  Location     Type
   548 ;;		None
   549 ;; Auto vars:     Size  Location     Type
   550 ;;		None
   551 ;; Return value:  Size  Location     Type
   552 ;;                  1    wreg      void 
   553 ;; Registers used:
   554 ;;		wreg, status,2, status,0
   555 ;; Tracked objects:
   556 ;;		On entry : 0/0
   557 ;;		On exit  : 0/0
   558 ;;		Unchanged: 0/0
   559 ;; Data sizes:     COMRAM   BANK0   BANK1   BANK2   BANK3   BANK4   BANK5
   560 ;;      Params:         0       0       0       0       0       0       0
   561 ;;      Locals:         0       0       0       0       0       0       0
   562 ;;      Temps:          0       0       0       0       0       0       0
   563 ;;      Totals:         0       0       0       0       0       0       0
   564 ;;Total ram usage:        0 bytes
   565 ;; Hardware stack levels used: 1
   566 ;; Hardware stack levels required when called: 1
   567 ;; This function calls:
   568 ;;		Nothing
   569 ;; This function is called by:
   570 ;;		_init_config
   571 ;; This function uses a non-reentrant model
   572 ;;
   573                           
   574                           	psect	text4
   575   0007AE                     __ptext4:
   576                           	callstack 0
   577   0007AE                     _init_config_digital_keypad:
   578                           	callstack 28
   579   0007AE                     
   580                           ;dksp.c: 11:     TRISC = TRISC | 0X0F;
   581   0007AE  5094               	movf	148,w,c	;volatile
   582   0007B0  090F               	iorlw	15
   583   0007B2  6E94               	movwf	148,c	;volatile
   584   0007B4  0012               	return		;funcret
   585   0007B6                     __end_of_init_config_digital_keypad:
   586                           	callstack 0
   587                           
   588 ;; *************** function _isr *****************
   589 ;; Defined at:
   590 ;;		line 24 in file "isr.c"
   591 ;; Parameters:    Size  Location     Type
   592 ;;		None
   593 ;; Auto vars:     Size  Location     Type
   594 ;;		None
   595 ;; Return value:  Size  Location     Type
   596 ;;                  1    wreg      void 
   597 ;; Registers used:
   598 ;;		wreg, status,2, status,0
   599 ;; Tracked objects:
   600 ;;		On entry : 0/0
   601 ;;		On exit  : 0/0
   602 ;;		Unchanged: 0/0
   603 ;; Data sizes:     COMRAM   BANK0   BANK1   BANK2   BANK3   BANK4   BANK5
   604 ;;      Params:         0       0       0       0       0       0       0
   605 ;;      Locals:         0       0       0       0       0       0       0
   606 ;;      Temps:          0       0       0       0       0       0       0
   607 ;;      Totals:         0       0       0       0       0       0       0
   608 ;;Total ram usage:        0 bytes
   609 ;; Hardware stack levels used: 1
   610 ;; This function calls:
   611 ;;		Nothing
   612 ;; This function is called by:
   613 ;;		Interrupt level 2
   614 ;; This function uses a non-reentrant model
   615 ;;
   616                           
   617                           	psect	intcode
   618   000008                     __pintcode:
   619                           	callstack 0
   620   000008                     _isr:
   621                           	callstack 28
   622                           
   623                           ;incstack = 0
   624   000008  8210               	bsf	int$flags,1,c	;set compiler interrupt flag (level 2)
   625   00000A  ED8A  F003         	call	int_func,f	;refresh shadow registers
   626                           
   627                           	psect	intcode_body
   628   000714                     __pintcode_body:
   629                           	callstack 28
   630   000714                     int_func:
   631                           	callstack 28
   632   000714  0006               	pop		; remove dummy address from shadow register refresh
   633   000716                     
   634                           ;isr.c: 26:     static unsigned int count;;isr.c: 27:     if (TMR0IF)
   635   000716  A4F2               	btfss	4082,2,c	;volatile
   636   000718  EF90  F003         	goto	i2u9_41
   637   00071C  EF92  F003         	goto	i2u9_40
   638   000720                     i2u9_41:
   639   000720  EFAD  F003         	goto	i2l81
   640   000724                     i2u9_40:
   641   000724                     
   642                           ;isr.c: 28:     {;isr.c: 29:         TMR0 = TMR0 + 8;
   643   000724  0E08               	movlw	8
   644   000726  24D6               	addwf	214,w,c	;volatile
   645   000728  6ED6               	movwf	214,c	;volatile
   646   00072A  0E00               	movlw	0
   647   00072C  20D7               	addwfc	215,w,c	;volatile
   648   00072E  6ED7               	movwf	215,c	;volatile
   649                           
   650                           ;isr.c: 30:         if (++count == 20000)
   651   000730  4A0B               	infsnz	isr@count^0,f,c
   652   000732  2A0C               	incf	(isr@count+1)^0,f,c
   653   000734  0E20               	movlw	32
   654   000736  180B               	xorwf	isr@count^0,w,c
   655   000738  E107               	bnz	i2u10_41
   656   00073A  0E4E               	movlw	78
   657   00073C  180C               	xorwf	(isr@count+1)^0,w,c
   658   00073E  A4D8               	btfss	status,2,c
   659   000740  EFA4  F003         	goto	i2u10_41
   660   000744  EFA6  F003         	goto	i2u10_40
   661   000748                     i2u10_41:
   662   000748  EFAC  F003         	goto	i2l839
   663   00074C                     i2u10_40:
   664   00074C                     
   665                           ;isr.c: 31:         {;isr.c: 32:             count = 0;
   666   00074C  0E00               	movlw	0
   667   00074E  6E0C               	movwf	(isr@count+1)^0,c
   668   000750  0E00               	movlw	0
   669   000752  6E0B               	movwf	isr@count^0,c
   670   000754                     
   671                           ;isr.c: 33:             delay++;
   672   000754  4A0D               	infsnz	_delay^0,f,c
   673   000756  2A0E               	incf	(_delay+1)^0,f,c
   674   000758                     i2l839:
   675                           
   676                           ;isr.c: 36:         TMR0IF = 0;
   677   000758  94F2               	bcf	4082,2,c	;volatile
   678   00075A                     i2l81:
   679   00075A  9210               	bcf	int$flags,1,c	;clear compiler interrupt flag (level 2)
   680   00075C  0011               	retfie		f
   681   00075E                     __end_of_isr:
   682                           	callstack 0
   683                           
   684                           	psect	smallconst
   685   000600                     __psmallconst:
   686                           	callstack 0
   687   000600  00                 	db	0
   688   000601  00                 	db	0	; dummy byte at the end
   689   000000                     
   690                           	psect	rparam
   691   000000                     
   692                           	psect	temp
   693   000010                     btemp:
   694                           	callstack 0
   695   000010                     	ds	1
   696   000000                     int$flags	set	btemp
   697   000000                     wtemp8	set	btemp+1
   698   000000                     ttemp5	set	btemp+1
   699   000000                     ttemp6	set	btemp+4
   700   000000                     ttemp7	set	btemp+8
   701                           
   702                           	psect	idloc
   703                           
   704                           ;Config register IDLOC0 @ 0x200000
   705                           ;	unspecified, using default values
   706   200000                     	org	2097152
   707   200000  FF                 	db	255
   708                           
   709                           ;Config register IDLOC1 @ 0x200001
   710                           ;	unspecified, using default values
   711   200001                     	org	2097153
   712   200001  FF                 	db	255
   713                           
   714                           ;Config register IDLOC2 @ 0x200002
   715                           ;	unspecified, using default values
   716   200002                     	org	2097154
   717   200002  FF                 	db	255
   718                           
   719                           ;Config register IDLOC3 @ 0x200003
   720                           ;	unspecified, using default values
   721   200003                     	org	2097155
   722   200003  FF                 	db	255
   723                           
   724                           ;Config register IDLOC4 @ 0x200004
   725                           ;	unspecified, using default values
   726   200004                     	org	2097156
   727   200004  FF                 	db	255
   728                           
   729                           ;Config register IDLOC5 @ 0x200005
   730                           ;	unspecified, using default values
   731   200005                     	org	2097157
   732   200005  FF                 	db	255
   733                           
   734                           ;Config register IDLOC6 @ 0x200006
   735                           ;	unspecified, using default values
   736   200006                     	org	2097158
   737   200006  FF                 	db	255
   738                           
   739                           ;Config register IDLOC7 @ 0x200007
   740                           ;	unspecified, using default values
   741   200007                     	org	2097159
   742   200007  FF                 	db	255
   743                           
   744                           	psect	config
   745                           
   746                           ; Padding undefined space
   747   300000                     	org	3145728
   748   300000  FF                 	db	255
   749                           
   750                           ;Config register CONFIG1H @ 0x300001
   751                           ;	unspecified, using default values
   752                           ;	Oscillator Selection bits
   753                           ;	OSC = 0x7, unprogrammed default
   754                           ;	Fail-Safe Clock Monitor Enable bit
   755                           ;	FCMEN = 0x0, unprogrammed default
   756                           ;	Internal/External Oscillator Switchover bit
   757                           ;	IESO = 0x0, unprogrammed default
   758   300001                     	org	3145729
   759   300001  07                 	db	7
   760                           
   761                           ;Config register CONFIG2L @ 0x300002
   762                           ;	unspecified, using default values
   763                           ;	Power-up Timer Enable bit
   764                           ;	PWRT = 0x1, unprogrammed default
   765                           ;	Brown-out Reset Enable bits
   766                           ;	BOREN = 0x3, unprogrammed default
   767                           ;	Brown-out Reset Voltage bits
   768                           ;	BORV = 0x3, unprogrammed default
   769   300002                     	org	3145730
   770   300002  1F                 	db	31
   771                           
   772                           ;Config register CONFIG2H @ 0x300003
   773                           ;	unspecified, using default values
   774                           ;	Watchdog Timer Enable bit
   775                           ;	WDT = 0x1, unprogrammed default
   776                           ;	Watchdog Timer Postscale Select bits
   777                           ;	WDTPS = 0xF, unprogrammed default
   778   300003                     	org	3145731
   779   300003  1F                 	db	31
   780                           
   781                           ; Padding undefined space
   782   300004                     	org	3145732
   783   300004  FF                 	db	255
   784                           
   785                           ;Config register CONFIG3H @ 0x300005
   786                           ;	unspecified, using default values
   787                           ;	PORTB A/D Enable bit
   788                           ;	PBADEN = 0x1, unprogrammed default
   789                           ;	Low-Power Timer 1 Oscillator Enable bit
   790                           ;	LPT1OSC = 0x0, unprogrammed default
   791                           ;	MCLR Pin Enable bit
   792                           ;	MCLRE = 0x1, unprogrammed default
   793   300005                     	org	3145733
   794   300005  82                 	db	130
   795                           
   796                           ;Config register CONFIG4L @ 0x300006
   797                           ;	unspecified, using default values
   798                           ;	Stack Full/Underflow Reset Enable bit
   799                           ;	STVREN = 0x1, unprogrammed default
   800                           ;	Single-Supply ICSP Enable bit
   801                           ;	LVP = 0x1, unprogrammed default
   802                           ;	Boot Block Size Select bit
   803                           ;	BBSIZ = 0x0, unprogrammed default
   804                           ;	Extended Instruction Set Enable bit
   805                           ;	XINST = 0x0, unprogrammed default
   806                           ;	Background Debugger Enable bit
   807                           ;	DEBUG = 0x1, unprogrammed default
   808   300006                     	org	3145734
   809   300006  85                 	db	133
   810                           
   811                           ; Padding undefined space
   812   300007                     	org	3145735
   813   300007  FF                 	db	255
   814                           
   815                           ;Config register CONFIG5L @ 0x300008
   816                           ;	unspecified, using default values
   817                           ;	Code Protection bit
   818                           ;	CP0 = 0x1, unprogrammed default
   819                           ;	Code Protection bit
   820                           ;	CP1 = 0x1, unprogrammed default
   821                           ;	Code Protection bit
   822                           ;	CP2 = 0x1, unprogrammed default
   823                           ;	Code Protection bit
   824                           ;	CP3 = 0x1, unprogrammed default
   825   300008                     	org	3145736
   826   300008  0F                 	db	15
   827                           
   828                           ;Config register CONFIG5H @ 0x300009
   829                           ;	unspecified, using default values
   830                           ;	Boot Block Code Protection bit
   831                           ;	CPB = 0x1, unprogrammed default
   832                           ;	Data EEPROM Code Protection bit
   833                           ;	CPD = 0x1, unprogrammed default
   834   300009                     	org	3145737
   835   300009  C0                 	db	192
   836                           
   837                           ;Config register CONFIG6L @ 0x30000A
   838                           ;	unspecified, using default values
   839                           ;	Write Protection bit
   840                           ;	WRT0 = 0x1, unprogrammed default
   841                           ;	Write Protection bit
   842                           ;	WRT1 = 0x1, unprogrammed default
   843                           ;	Write Protection bit
   844                           ;	WRT2 = 0x1, unprogrammed default
   845                           ;	Write Protection bit
   846                           ;	WRT3 = 0x1, unprogrammed default
   847   30000A                     	org	3145738
   848   30000A  0F                 	db	15
   849                           
   850                           ;Config register CONFIG6H @ 0x30000B
   851                           ;	unspecified, using default values
   852                           ;	Configuration Register Write Protection bit
   853                           ;	WRTC = 0x1, unprogrammed default
   854                           ;	Boot Block Write Protection bit
   855                           ;	WRTB = 0x1, unprogrammed default
   856                           ;	Data EEPROM Write Protection bit
   857                           ;	WRTD = 0x1, unprogrammed default
   858   30000B                     	org	3145739
   859   30000B  E0                 	db	224
   860                           
   861                           ;Config register CONFIG7L @ 0x30000C
   862                           ;	unspecified, using default values
   863                           ;	Table Read Protection bit
   864                           ;	EBTR0 = 0x1, unprogrammed default
   865                           ;	Table Read Protection bit
   866                           ;	EBTR1 = 0x1, unprogrammed default
   867                           ;	Table Read Protection bit
   868                           ;	EBTR2 = 0x1, unprogrammed default
   869                           ;	Table Read Protection bit
   870                           ;	EBTR3 = 0x1, unprogrammed default
   871   30000C                     	org	3145740
   872   30000C  0F                 	db	15
   873                           
   874                           ;Config register CONFIG7H @ 0x30000D
   875                           ;	unspecified, using default values
   876                           ;	Boot Block Table Read Protection bit
   877                           ;	EBTRB = 0x1, unprogrammed default
   878   30000D                     	org	3145741
   879   30000D  40                 	db	64
   880                           tosu	equ	0xFFF
   881                           tosh	equ	0xFFE
   882                           tosl	equ	0xFFD
   883                           stkptr	equ	0xFFC
   884                           pclatu	equ	0xFFB
   885                           pclath	equ	0xFFA
   886                           pcl	equ	0xFF9
   887                           tblptru	equ	0xFF8
   888                           tblptrh	equ	0xFF7
   889                           tblptrl	equ	0xFF6
   890                           tablat	equ	0xFF5
   891                           prodh	equ	0xFF4
   892                           prodl	equ	0xFF3
   893                           indf0	equ	0xFEF
   894                           postinc0	equ	0xFEE
   895                           postdec0	equ	0xFED
   896                           preinc0	equ	0xFEC
   897                           plusw0	equ	0xFEB
   898                           fsr0h	equ	0xFEA
   899                           fsr0l	equ	0xFE9
   900                           wreg	equ	0xFE8
   901                           indf1	equ	0xFE7
   902                           postinc1	equ	0xFE6
   903                           postdec1	equ	0xFE5
   904                           preinc1	equ	0xFE4
   905                           plusw1	equ	0xFE3
   906                           fsr1h	equ	0xFE2
   907                           fsr1l	equ	0xFE1
   908                           bsr	equ	0xFE0
   909                           indf2	equ	0xFDF
   910                           postinc2	equ	0xFDE
   911                           postdec2	equ	0xFDD
   912                           preinc2	equ	0xFDC
   913                           plusw2	equ	0xFDB
   914                           fsr2h	equ	0xFDA
   915                           fsr2l	equ	0xFD9
   916                           status	equ	0xFD8

Data Sizes:
    Strings     0
    Constant    0
    Data        1
    BSS         4
    Persistent  0
    Stack       0

Auto Spaces:
    Space          Size  Autos    Used
    COMRAM           94     10      15
    BANK0           160      0       0
    BANK1           256      0       0
    BANK2           256      0       0
    BANK3           256      0       0
    BANK4           256      0       0
    BANK5           256      0       0

Pointer List with Targets:

    None.

Critical Paths under _main in COMRAM

    _main->_read_digital_keypad

Critical Paths under _isr in COMRAM

    None.

Critical Paths under _main in BANK0

    None.

Critical Paths under _isr in BANK0

    None.

Critical Paths under _main in BANK1

    None.

Critical Paths under _isr in BANK1

    None.

Critical Paths under _main in BANK2

    None.

Critical Paths under _isr in BANK2

    None.

Critical Paths under _main in BANK3

    None.

Critical Paths under _isr in BANK3

    None.

Critical Paths under _main in BANK4

    None.

Critical Paths under _isr in BANK4

    None.

Critical Paths under _main in BANK5

    None.

Critical Paths under _isr in BANK5

    None.

Call Graph Tables:

 ---------------------------------------------------------------------------------
 (Depth) Function   	        Calls       Base Space   Used Autos Params    Refs
 ---------------------------------------------------------------------------------
 (0) _main                                                 9     9      0      90
                                              1 COMRAM     9     9      0
                        _init_config
                _read_digital_keypad
 ---------------------------------------------------------------------------------
 (1) _read_digital_keypad                                  1     1      0      15
                                              0 COMRAM     1     1      0
 ---------------------------------------------------------------------------------
 (1) _init_config                                          0     0      0       0
         _init_config_digital_keypad
                        _init_timer0
 ---------------------------------------------------------------------------------
 (2) _init_timer0                                          0     0      0       0
 ---------------------------------------------------------------------------------
 (2) _init_config_digital_keypad                           0     0      0       0
 ---------------------------------------------------------------------------------
 Estimated maximum stack depth 2
 ---------------------------------------------------------------------------------
 (Depth) Function   	        Calls       Base Space   Used Autos Params    Refs
 ---------------------------------------------------------------------------------
 (3) _isr                                                  0     0      0       0
 ---------------------------------------------------------------------------------
 Estimated maximum stack depth 3
 ---------------------------------------------------------------------------------

 Call Graph Graphs:

 _main (ROOT)
   _init_config
     _init_config_digital_keypad
     _init_timer0
   _read_digital_keypad

 _isr (ROOT)

 Address spaces:
Name               Size   Autos  Total    Cost      Usage
BIGRAM             5FF      0       0      22        0.0%
BITBIGSFRll        281      0       0      20        0.0%
EEDATA             100      0       0       0        0.0%
BITBANK5           100      0       0      14        0.0%
BANK5              100      0       0      15        0.0%
BITBANK4           100      0       0      12        0.0%
BANK4              100      0       0      13        0.0%
BITBANK3           100      0       0      10        0.0%
BANK3              100      0       0      11        0.0%
BITBANK2           100      0       0       8        0.0%
BANK2              100      0       0       9        0.0%
BITBANK1           100      0       0       6        0.0%
BANK1              100      0       0       7        0.0%
BITBANK0            A0      0       0       4        0.0%
BANK0               A0      0       0       5        0.0%
BITCOMRAM           5E      0       0       0        0.0%
COMRAM              5E      A       F       1       16.0%
BITBIGSFRhll        40      0       0      18        0.0%
BITBIGSFRhlh        1A      0       0      17        0.0%
BITBIGSFRlh         10      0       0      19        0.0%
BITBIGSFRhh          D      0       0      16        0.0%
BIGSFR               0      0       0     200        0.0%
BITSFR_3             0      0       0     200        0.0%
SFR_3                0      0       0     200        0.0%
BITSFR_2             0      0       0     200        0.0%
SFR_2                0      0       0     200        0.0%
BITSFR_1             0      0       0     200        0.0%
SFR_1                0      0       0     200        0.0%
BITSFR               0      0       0     200        0.0%
SFR                  0      0       0     200        0.0%
STACK                0      0       0       2        0.0%
NULL                 0      0       0       0        0.0%
ABS                  0      0       F      21        0.0%
DATA                 0      0       F       3        0.0%
CODE                 0      0       0       0        0.0%


Microchip Technology PIC18 Macro Assembler V2.45 build 20230818022343 
Symbol Table                                                                                   Fri Apr 05 08:02:33 2024

                                l23 0642                                  l17 07AC  
                                l45 0712                                  l39 07B4  
                                l72 079A                                  u10 06C4  
                                u11 06C0                                  u20 06E0  
                                u21 06DC                                  u30 06F0  
                                u31 06EC                                  u40 070C  
                                u41 0708                                  u50 063C  
                                u51 0638                                  u60 066C  
                                u61 0668                                  u70 0686  
                                u71 0682                                  u80 06AA  
                                u81 06A6                                 l801 0710  
                               l811 0616                                 l821 066C  
                               l813 061E                                 l805 0602  
                               l823 0674                                 l815 0626  
                               l807 0606                                 l761 0792  
                               l825 0686                                 l817 063C  
                               l809 060E                                 l763 0794  
                               l771 079C                                 l827 0696  
                               l819 0644                                 l765 0796  
                               l757 0782                                 l773 07A4  
                               l767 0798                                 l759 078A  
                               l775 07A8                                 l769 07AE  
                               l785 06CC                                 l777 06B4  
                               l787 06E0                                 l779 06C4  
                               l789 06F0                                 l797 06F8  
                               l799 070C                                 _GIE 7F97  
                               _RB0 7C08                                 _PSA 7EAB  
                               _isr 0008               ??_read_digital_keypad 0001  
                              ?_isr 0001                                _T0CS 7EAD  
                              _PEIE 7F96                                i2l81 075A  
                              _TMR0 0FD6                                _main 0602  
                              btemp 0010                                start 000E  
                      ___param_bank 0000                               ??_isr 0001  
                             ?_main 0001                        ?_init_config 0001  
                             i2l831 0716                               i2l833 0724  
                             i2l835 074C                               i2l837 0754  
                             i2l839 0758                               _PORTB 0F81  
                             _PORTC 0F82                               _TRISB 0F93  
                             _TRISC 0F94                        ?_init_timer0 0001  
                             _delay 000D                               tablat 0FF5  
                             ttemp5 0011                               ttemp6 0014  
                             ttemp7 0018                               status 0FD8  
                             wtemp8 0011                     __initialization 075E  
      ??_init_config_digital_keypad 0001                        __end_of_main 06B2  
                            ??_main 0002                       __activetblptr 0000  
                            _T08BIT 7EAE                              _TMR0IE 7F95  
                            _TMR0IF 7F92                              _TMR0ON 7EAF  
                            i2u9_40 0724                              i2u9_41 0720  
                            isa$std 0001                        __pdataCOMRAM 000F  
                      __mediumconst 0000                              tblptrh 0FF7  
                            tblptrl 0FF6                              tblptru 0FF8  
                        __accesstop 0060             __end_of__initialization 0778  
                     ___rparam_used 0001                      __pcstackCOMRAM 0001  
__end_of_init_config_digital_keypad 07B6          _init_config_digital_keypad 07AE  
       __end_of_read_digital_keypad 0714                             i2u10_40 074C  
                           i2u10_41 0748                      main@duty_cycle 0006  
                           __Hparam 0000                             __Lparam 0000  
                      __psmallconst 0600                             __pcinit 075E  
                           __ramtop 0600                             __ptext0 0602  
                           __ptext1 06B2                             __ptext2 079C  
                           __ptext3 0782                             __ptext4 07AE  
                           main@key 0008                      __pintcode_body 0714  
              end_of_initialization 0778                             int_func 0714  
                        main@period 0004                       __pidataCOMRAM 07B6  
               start_initialization 075E                         __end_of_isr 075E  
       ?_init_config_digital_keypad 0001                       ??_init_config 0001  
                     ??_init_timer0 0001                         __pbssCOMRAM 000B  
                         __pintcode 0008                         __smallconst 0600  
                 main@program_cycle 0009                 __end_of_init_config 07AE  
               __end_of_init_timer0 079C                            __Hrparam 0000  
                          __Lrparam 0000                         _init_config 079C  
                       _init_timer0 0782             read_digital_keypad@mode 0001  
           read_digital_keypad@once 000F                            isa$xinst 0000  
                          int$flags 0010                            isr@count 000B  
                          intlevel2 0000                 _read_digital_keypad 06B2  
              ?_read_digital_keypad 0001  
